target datalayout = "e-m:e-p270:32:32-p271:32:32-p272:64:64-i64:64-i128:128-f80:128-n8:16:32:64-S128"
target triple = "x86_64-pc-linux-gnu"

%struct.hdcd_state = type { i64, i8, i8, i8, i32, i32, i32, i32, i32, i32, i32, i32, i32, i32, i32, [16 x i32], i32, i32, i32, i32 }
%struct.hdcd_detection_data = type { i32, i32, i32, i32, i32, i32, float, i32, i32 }

; Function Attrs: nounwind uwtable
define internal void @hdcd_detect_onech(ptr noundef %0, ptr noundef %1) #1 {
  %3 = alloca ptr, align 8
  %4 = alloca ptr, align 8
  %5 = alloca i32, align 4
  store ptr %0, ptr %3, align 8, !tbaa !33
  store ptr %1, ptr %4, align 8, !tbaa !107
  call void @llvm.lifetime.start.p0(i64 4, ptr %5) #7
  store i32 0, ptr %5, align 4, !tbaa !32
  %6 = load ptr, ptr %3, align 8, !tbaa !33
  %7 = getelementptr inbounds nuw %struct.hdcd_state, ptr %6, i32 0, i32 14
  %8 = load i32, ptr %7, align 4, !tbaa !41
  %9 = icmp ne i32 %8, 0
  %10 = xor i1 %9, true
  %11 = xor i1 %10, true
  %12 = zext i1 %11 to i32
  %13 = load ptr, ptr %4, align 8, !tbaa !107
  %14 = getelementptr inbounds nuw %struct.hdcd_detection_data, ptr %13, i32 0, i32 5
  %15 = load i32, ptr %14, align 4, !tbaa !117
  %16 = or i32 %15, %12
  store i32 %16, ptr %14, align 4, !tbaa !117
  %17 = load ptr, ptr %3, align 8, !tbaa !33
  %18 = getelementptr inbounds nuw %struct.hdcd_state, ptr %17, i32 0, i32 7
  %19 = load i32, ptr %18, align 8, !tbaa !35
  %20 = load ptr, ptr %3, align 8, !tbaa !33
  %21 = getelementptr inbounds nuw %struct.hdcd_state, ptr %20, i32 0, i32 9
  %22 = load i32, ptr %21, align 8, !tbaa !38
  %23 = add nsw i32 %19, %22
  %24 = load ptr, ptr %4, align 8, !tbaa !107
  %25 = getelementptr inbounds nuw %struct.hdcd_detection_data, ptr %24, i32 0, i32 2
  %26 = load i32, ptr %25, align 4, !tbaa !110
  %27 = add nsw i32 %26, %23
  store i32 %27, ptr %25, align 4, !tbaa !110
  %28 = load ptr, ptr %3, align 8, !tbaa !33
  %29 = getelementptr inbounds nuw %struct.hdcd_state, ptr %28, i32 0, i32 7
  %30 = load i32, ptr %29, align 8, !tbaa !35
  %31 = icmp ne i32 %30, 0
  br i1 %31, label %32, label %37

32:                                               ; preds = %2
  %33 = load ptr, ptr %4, align 8, !tbaa !107
  %34 = getelementptr inbounds nuw %struct.hdcd_detection_data, ptr %33, i32 0, i32 1
  %35 = load i32, ptr %34, align 4, !tbaa !118
  %36 = or i32 %35, 1
  store i32 %36, ptr %34, align 4, !tbaa !118
  br label %37

37:                                               ; preds = %32, %2
  %38 = load ptr, ptr %3, align 8, !tbaa !33
  %39 = getelementptr inbounds nuw %struct.hdcd_state, ptr %38, i32 0, i32 9
  %40 = load i32, ptr %39, align 8, !tbaa !38
  %41 = icmp ne i32 %40, 0
  br i1 %41, label %42, label %47

42:                                               ; preds = %37
  %43 = load ptr, ptr %4, align 8, !tbaa !107
  %44 = getelementptr inbounds nuw %struct.hdcd_detection_data, ptr %43, i32 0, i32 1
  %45 = load i32, ptr %44, align 4, !tbaa !118
  %46 = or i32 %45, 2
  store i32 %46, ptr %44, align 4, !tbaa !118
  br label %47

47:                                               ; preds = %42, %37
  %48 = load ptr, ptr %3, align 8, !tbaa !33
  %49 = getelementptr inbounds nuw %struct.hdcd_state, ptr %48, i32 0, i32 13
  %50 = load i32, ptr %49, align 8, !tbaa !40
  %51 = icmp ne i32 %50, 0
  br i1 %51, label %52, label %76

52:                                               ; preds = %47
  %53 = load ptr, ptr %3, align 8, !tbaa !33
  %54 = getelementptr inbounds nuw %struct.hdcd_state, ptr %53, i32 0, i32 13
  %55 = load i32, ptr %54, align 8, !tbaa !40
  %56 = load ptr, ptr %3, align 8, !tbaa !33
  %57 = getelementptr inbounds nuw %struct.hdcd_state, ptr %56, i32 0, i32 7
  %58 = load i32, ptr %57, align 8, !tbaa !35
  %59 = load ptr, ptr %3, align 8, !tbaa !33
  %60 = getelementptr inbounds nuw %struct.hdcd_state, ptr %59, i32 0, i32 9
  %61 = load i32, ptr %60, align 8, !tbaa !38
  %62 = add nsw i32 %58, %61
  %63 = icmp eq i32 %55, %62
  br i1 %63, label %64, label %65

64:                                               ; preds = %52
  store i32 2, ptr %5, align 4, !tbaa !32
  br label %66

65:                                               ; preds = %52
  store i32 1, ptr %5, align 4, !tbaa !32
  br label %66

66:                                               ; preds = %65, %64
  %67 = load ptr, ptr %4, align 8, !tbaa !107
  %68 = getelementptr inbounds nuw %struct.hdcd_detection_data, ptr %67, i32 0, i32 4
  %69 = load i32, ptr %68, align 4, !tbaa !119
  %70 = icmp ne i32 %69, 1
  br i1 %70, label %71, label %75

71:                                               ; preds = %66
  %72 = load i32, ptr %5, align 4, !tbaa !32
  %73 = load ptr, ptr %4, align 8, !tbaa !107
  %74 = getelementptr inbounds nuw %struct.hdcd_detection_data, ptr %73, i32 0, i32 4
  store i32 %72, ptr %74, align 4, !tbaa !119
  br label %75

75:                                               ; preds = %71, %66
  br label %76

76:                                               ; preds = %75, %47
  %77 = load ptr, ptr %4, align 8, !tbaa !107
  %78 = getelementptr inbounds nuw %struct.hdcd_detection_data, ptr %77, i32 0, i32 6
  %79 = load float, ptr %78, align 4, !tbaa !120
  %80 = fpext nsz float %79 to double
  %81 = load ptr, ptr %3, align 8, !tbaa !33
  %82 = getelementptr inbounds nuw %struct.hdcd_state, ptr %81, i32 0, i32 16
  %83 = load i32, ptr %82, align 8, !tbaa !46
  %84 = icmp ne i32 %83, 0
  br i1 %84, label %85, label %100

85:                                               ; preds = %76
  %86 = load ptr, ptr %3, align 8, !tbaa !33
  %87 = getelementptr inbounds nuw %struct.hdcd_state, ptr %86, i32 0, i32 16
  %88 = load i32, ptr %87, align 8, !tbaa !46
  %89 = ashr i32 %88, 1
  %90 = sitofp i32 %89 to float
  %91 = fneg nsz float %90
  %92 = fpext nsz float %91 to double
  %93 = load ptr, ptr %3, align 8, !tbaa !33
  %94 = getelementptr inbounds nuw %struct.hdcd_state, ptr %93, i32 0, i32 16
  %95 = load i32, ptr %94, align 8, !tbaa !46
  %96 = and i32 %95, 1
  %97 = icmp ne i32 %96, 0
  %98 = select nsz i1 %97, double 5.000000e-01, double 0.000000e+00
  %99 = fsub nsz double %92, %98
  br label %101

100:                                              ; preds = %76
  br label %101

101:                                              ; preds = %100, %85
  %102 = phi nsz double [ %99, %85 ], [ 0.000000e+00, %100 ]
  %103 = fcmp nsz ogt double %80, %102
  br i1 %103, label %104, label %127

104:                                              ; preds = %101
  %105 = load ptr, ptr %3, align 8, !tbaa !33
  %106 = getelementptr inbounds nuw %struct.hdcd_state, ptr %105, i32 0, i32 16
  %107 = load i32, ptr %106, align 8, !tbaa !46
  %108 = icmp ne i32 %107, 0
  br i1 %108, label %109, label %124

109:                                              ; preds = %104
  %110 = load ptr, ptr %3, align 8, !tbaa !33
  %111 = getelementptr inbounds nuw %struct.hdcd_state, ptr %110, i32 0, i32 16
  %112 = load i32, ptr %111, align 8, !tbaa !46
  %113 = ashr i32 %112, 1
  %114 = sitofp i32 %113 to float
  %115 = fneg nsz float %114
  %116 = fpext nsz float %115 to double
  %117 = load ptr, ptr %3, align 8, !tbaa !33
  %118 = getelementptr inbounds nuw %struct.hdcd_state, ptr %117, i32 0, i32 16
  %119 = load i32, ptr %118, align 8, !tbaa !46
  %120 = and i32 %119, 1
  %121 = icmp ne i32 %120, 0
  %122 = select nsz i1 %121, double 5.000000e-01, double 0.000000e+00
  %123 = fsub nsz double %116, %122
  br label %125

124:                                              ; preds = %104
  br label %125

125:                                              ; preds = %124, %109
  %126 = phi nsz double [ %123, %109 ], [ 0.000000e+00, %124 ]
  br label %132

127:                                              ; preds = %101
  %128 = load ptr, ptr %4, align 8, !tbaa !107
  %129 = getelementptr inbounds nuw %struct.hdcd_detection_data, ptr %128, i32 0, i32 6
  %130 = load float, ptr %129, align 4, !tbaa !120
  %131 = fpext nsz float %130 to double
  br label %132

132:                                              ; preds = %127, %125
  %133 = phi nsz double [ %126, %125 ], [ %131, %127 ]
  %134 = fptrunc nsz double %133 to float
  %135 = load ptr, ptr %4, align 8, !tbaa !107
  %136 = getelementptr inbounds nuw %struct.hdcd_detection_data, ptr %135, i32 0, i32 6
  store float %134, ptr %136, align 4, !tbaa !120
  %137 = load ptr, ptr %3, align 8, !tbaa !33
  %138 = getelementptr inbounds nuw %struct.hdcd_state, ptr %137, i32 0, i32 8
  %139 = load i32, ptr %138, align 4, !tbaa !42
  %140 = load ptr, ptr %3, align 8, !tbaa !33
  %141 = getelementptr inbounds nuw %struct.hdcd_state, ptr %140, i32 0, i32 10
  %142 = load i32, ptr %141, align 4, !tbaa !43
  %143 = add nsw i32 %139, %142
  %144 = load ptr, ptr %3, align 8, !tbaa !33
  %145 = getelementptr inbounds nuw %struct.hdcd_state, ptr %144, i32 0, i32 12
  %146 = load i32, ptr %145, align 4, !tbaa !44
  %147 = add nsw i32 %143, %146
  %148 = load ptr, ptr %4, align 8, !tbaa !107
  %149 = getelementptr inbounds nuw %struct.hdcd_detection_data, ptr %148, i32 0, i32 3
  %150 = load i32, ptr %149, align 4, !tbaa !109
  %151 = add nsw i32 %150, %147
  store i32 %151, ptr %149, align 4, !tbaa !109
  %152 = load ptr, ptr %3, align 8, !tbaa !33
  %153 = getelementptr inbounds nuw %struct.hdcd_state, ptr %152, i32 0, i32 4
  %154 = load i32, ptr %153, align 4, !tbaa !115
  %155 = icmp ne i32 %154, 0
  br i1 %155, label %156, label %161

156:                                              ; preds = %132
  %157 = load ptr, ptr %4, align 8, !tbaa !107
  %158 = getelementptr inbounds nuw %struct.hdcd_detection_data, ptr %157, i32 0, i32 8
  %159 = load i32, ptr %158, align 4, !tbaa !111
  %160 = add nsw i32 %159, 1
  store i32 %160, ptr %158, align 4, !tbaa !111
  br label %161

161:                                              ; preds = %156, %132
  %162 = load ptr, ptr %3, align 8, !tbaa !33
  %163 = getelementptr inbounds nuw %struct.hdcd_state, ptr %162, i32 0, i32 17
  %164 = load i32, ptr %163, align 4, !tbaa !45
  %165 = icmp sge i32 %164, 0
  br i1 %165, label %166, label %182

166:                                              ; preds = %161
  %167 = load ptr, ptr %4, align 8, !tbaa !107
  %168 = getelementptr inbounds nuw %struct.hdcd_detection_data, ptr %167, i32 0, i32 7
  %169 = load i32, ptr %168, align 4, !tbaa !112
  %170 = icmp eq i32 %169, -1
  br i1 %170, label %171, label %174

171:                                              ; preds = %166
  %172 = load ptr, ptr %4, align 8, !tbaa !107
  %173 = getelementptr inbounds nuw %struct.hdcd_detection_data, ptr %172, i32 0, i32 7
  store i32 0, ptr %173, align 4, !tbaa !112
  br label %174

174:                                              ; preds = %171, %166
  %175 = load ptr, ptr %3, align 8, !tbaa !33
  %176 = getelementptr inbounds nuw %struct.hdcd_state, ptr %175, i32 0, i32 17
  %177 = load i32, ptr %176, align 4, !tbaa !45
  %178 = load ptr, ptr %4, align 8, !tbaa !107
  %179 = getelementptr inbounds nuw %struct.hdcd_detection_data, ptr %178, i32 0, i32 7
  %180 = load i32, ptr %179, align 4, !tbaa !112
  %181 = add nsw i32 %180, %177
  store i32 %181, ptr %179, align 4, !tbaa !112
  br label %182

182:                                              ; preds = %174, %161
  call void @llvm.lifetime.end.p0(i64 4, ptr %5) #7
  ret void
}