; Function Attrs: mustprogress nofree norecurse nosync nounwind willreturn memory(argmem: readwrite) uwtable
define internal fastcc void @hdcd_detect_onech(ptr noundef readonly captures(none) %0, ptr noundef captures(none) %1) unnamed_addr #4 {
  %3 = getelementptr inbounds nuw i8, ptr %0, i64 52
  %4 = load i32, ptr %3, align 4, !tbaa !35
  %5 = icmp ne i32 %4, 0
  %6 = zext i1 %5 to i32
  %7 = getelementptr inbounds nuw i8, ptr %1, i64 20
  %8 = load i32, ptr %7, align 4, !tbaa !115
  %9 = or i32 %8, %6
  store i32 %9, ptr %7, align 4, !tbaa !115
  %10 = getelementptr inbounds nuw i8, ptr %0, i64 24
  %11 = load i32, ptr %10, align 8, !tbaa !29
  %12 = getelementptr inbounds nuw i8, ptr %0, i64 32
  %13 = load i32, ptr %12, align 8, !tbaa !32
  %14 = add nsw i32 %13, %11
  %15 = getelementptr inbounds nuw i8, ptr %1, i64 8
  %16 = load i32, ptr %15, align 4, !tbaa !89
  %17 = add nsw i32 %16, %14
  store i32 %17, ptr %15, align 4, !tbaa !89
  %.not = icmp eq i32 %11, 0
  br i1 %.not, label %22, label %18

18:                                               ; preds = %2
  %19 = getelementptr inbounds nuw i8, ptr %1, i64 4
  %20 = load i32, ptr %19, align 4, !tbaa !116
  %21 = or i32 %20, 1
  store i32 %21, ptr %19, align 4, !tbaa !116
  br label %22

22:                                               ; preds = %18, %2
  %.not38 = icmp eq i32 %13, 0
  br i1 %.not38, label %27, label %23

23:                                               ; preds = %22
  %24 = getelementptr inbounds nuw i8, ptr %1, i64 4
  %25 = load i32, ptr %24, align 4, !tbaa !116
  %26 = or i32 %25, 2
  store i32 %26, ptr %24, align 4, !tbaa !116
  br label %27

27:                                               ; preds = %23, %22
  %28 = getelementptr inbounds nuw i8, ptr %0, i64 48
  %29 = load i32, ptr %28, align 8, !tbaa !34
  %.not39 = icmp eq i32 %29, 0
  br i1 %.not39, label %35, label %30

30:                                               ; preds = %27
  %31 = getelementptr inbounds nuw i8, ptr %1, i64 16
  %32 = load i32, ptr %31, align 4, !tbaa !105
  %.not40 = icmp eq i32 %32, 1
  br i1 %.not40, label %35, label %33

33:                                               ; preds = %30
  %34 = icmp eq i32 %29, %14
  %. = select i1 %34, i32 2, i32 1
  store i32 %., ptr %31, align 4, !tbaa !105
  br label %35

35:                                               ; preds = %30, %33, %27
  %36 = getelementptr inbounds nuw i8, ptr %1, i64 24
  %37 = load float, ptr %36, align 4, !tbaa !100
  %38 = getelementptr inbounds nuw i8, ptr %0, i64 120
  %39 = load i32, ptr %38, align 8, !tbaa !40
  %.not41 = icmp eq i32 %39, 0
  br i1 %.not41, label %40, label %.thread

40:                                               ; preds = %35
  %41 = fcmp nsz ogt float %37, 0.000000e+00
  br i1 %41, label %54, label %53

.thread:                                          ; preds = %35
  %42 = fpext nsz float %37 to double
  %43 = ashr i32 %39, 1
  %44 = sitofp i32 %43 to float
  %45 = fneg nsz float %44
  %46 = fpext nsz float %45 to double
  %47 = and i32 %39, 1
  %.not42 = icmp eq i32 %47, 0
  %48 = select nsz i1 %.not42, double 0.000000e+00, double 5.000000e-01
  %49 = fsub nsz double %46, %48
  %50 = fcmp nsz olt double %49, %42
  br i1 %50, label %51, label %53

51:                                               ; preds = %.thread
  %52 = fptrunc nsz double %49 to float
  br label %54

53:                                               ; preds = %.thread, %40
  br label %54

54:                                               ; preds = %40, %51, %53
  %55 = phi float [ %37, %53 ], [ %52, %51 ], [ 0.000000e+00, %40 ]
  store float %55, ptr %36, align 4, !tbaa !100
  %56 = getelementptr inbounds nuw i8, ptr %0, i64 28
  %57 = load i32, ptr %56, align 4, !tbaa !36
  %58 = getelementptr inbounds nuw i8, ptr %0, i64 36
  %59 = load i32, ptr %58, align 4, !tbaa !37
  %60 = add nsw i32 %59, %57
  %61 = getelementptr inbounds nuw i8, ptr %0, i64 44
  %62 = load i32, ptr %61, align 4, !tbaa !38
  %63 = add nsw i32 %60, %62
  %64 = getelementptr inbounds nuw i8, ptr %1, i64 12
  %65 = load i32, ptr %64, align 4, !tbaa !88
  %66 = add nsw i32 %63, %65
  store i32 %66, ptr %64, align 4, !tbaa !88
  %67 = getelementptr inbounds nuw i8, ptr %0, i64 12
  %68 = load i32, ptr %67, align 4, !tbaa !98
  %.not45 = icmp eq i32 %68, 0
  br i1 %.not45, label %73, label %69

69:                                               ; preds = %54
  %70 = getelementptr inbounds nuw i8, ptr %1, i64 32
  %71 = load i32, ptr %70, align 4, !tbaa !90
  %72 = add nsw i32 %71, 1
  store i32 %72, ptr %70, align 4, !tbaa !90
  br label %73

73:                                               ; preds = %69, %54
  %74 = getelementptr inbounds nuw i8, ptr %0, i64 124
  %75 = load i32, ptr %74, align 4, !tbaa !39
  %76 = icmp sgt i32 %75, -1
  br i1 %76, label %77, label %82

77:                                               ; preds = %73
  %78 = getelementptr inbounds nuw i8, ptr %1, i64 28
  %79 = load i32, ptr %78, align 4, !tbaa !91
  %80 = icmp eq i32 %79, -1
  %spec.select = select i1 %80, i32 0, i32 %79
  %81 = add nsw i32 %spec.select, %75
  store i32 %81, ptr %78, align 4, !tbaa !91
  br label %82

82:                                               ; preds = %77, %73
  ret void
}